target datalayout = "e-m:e-p270:32:32-p271:32:32-p272:64:64-i64:64-i128:128-f80:128-n8:16:32:64-S128"
target triple = "x86_64-pc-linux-gnu"

%struct.grpc_slice = type { ptr, %"union.grpc_slice::grpc_slice_data" }
%"union.grpc_slice::grpc_slice_data" = type { %"struct.grpc_slice::grpc_slice_data::grpc_slice_refcounted", [8 x i8] }
%"struct.grpc_slice::grpc_slice_data::grpc_slice_refcounted" = type { i64, ptr }
%"struct.grpc_slice::grpc_slice_data::grpc_slice_inlined" = type { i8, [23 x i8] }

; Function Attrs: mustprogress uwtable
define ptr @grpc_slice_to_c_string(ptr noundef byval(%struct.grpc_slice) align 8 %0) #4 {
  %2 = alloca ptr, align 8
  call void @llvm.lifetime.start.p0(i64 8, ptr %2) #3
  %3 = getelementptr inbounds nuw %struct.grpc_slice, ptr %0, i32 0, i32 0
  %4 = load ptr, ptr %3, align 8, !tbaa !3
  %5 = icmp ne ptr %4, null
  br i1 %5, label %6, label %10

6:                                                ; preds = %1
  %7 = getelementptr inbounds nuw %struct.grpc_slice, ptr %0, i32 0, i32 1
  %8 = getelementptr inbounds nuw %"struct.grpc_slice::grpc_slice_data::grpc_slice_refcounted", ptr %7, i32 0, i32 0
  %9 = load i64, ptr %8, align 8, !tbaa !9
  br label %15

10:                                               ; preds = %1
  %11 = getelementptr inbounds nuw %struct.grpc_slice, ptr %0, i32 0, i32 1
  %12 = getelementptr inbounds nuw %"struct.grpc_slice::grpc_slice_data::grpc_slice_inlined", ptr %11, i32 0, i32 0
  %13 = load i8, ptr %12, align 8, !tbaa !9
  %14 = zext i8 %13 to i64
  br label %15

15:                                               ; preds = %10, %6
  %16 = phi i64 [ %9, %6 ], [ %14, %10 ]
  %17 = add i64 %16, 1
  %18 = call ptr @gpr_malloc(i64 noundef %17)
  store ptr %18, ptr %2, align 8, !tbaa !10
  %19 = load ptr, ptr %2, align 8, !tbaa !10
  %20 = getelementptr inbounds nuw %struct.grpc_slice, ptr %0, i32 0, i32 0
  %21 = load ptr, ptr %20, align 8, !tbaa !3
  %22 = icmp ne ptr %21, null
  br i1 %22, label %23, label %27

23:                                               ; preds = %15
  %24 = getelementptr inbounds nuw %struct.grpc_slice, ptr %0, i32 0, i32 1
  %25 = getelementptr inbounds nuw %"struct.grpc_slice::grpc_slice_data::grpc_slice_refcounted", ptr %24, i32 0, i32 1
  %26 = load ptr, ptr %25, align 8, !tbaa !9
  br label %31

27:                                               ; preds = %15
  %28 = getelementptr inbounds nuw %struct.grpc_slice, ptr %0, i32 0, i32 1
  %29 = getelementptr inbounds nuw %"struct.grpc_slice::grpc_slice_data::grpc_slice_inlined", ptr %28, i32 0, i32 1
  %30 = getelementptr inbounds [23 x i8], ptr %29, i64 0, i64 0
  br label %31

31:                                               ; preds = %27, %23
  %32 = phi ptr [ %26, %23 ], [ %30, %27 ]
  %33 = getelementptr inbounds nuw %struct.grpc_slice, ptr %0, i32 0, i32 0
  %34 = load ptr, ptr %33, align 8, !tbaa !3
  %35 = icmp ne ptr %34, null
  br i1 %35, label %36, label %40

36:                                               ; preds = %31
  %37 = getelementptr inbounds nuw %struct.grpc_slice, ptr %0, i32 0, i32 1
  %38 = getelementptr inbounds nuw %"struct.grpc_slice::grpc_slice_data::grpc_slice_refcounted", ptr %37, i32 0, i32 0
  %39 = load i64, ptr %38, align 8, !tbaa !9
  br label %45

40:                                               ; preds = %31
  %41 = getelementptr inbounds nuw %struct.grpc_slice, ptr %0, i32 0, i32 1
  %42 = getelementptr inbounds nuw %"struct.grpc_slice::grpc_slice_data::grpc_slice_inlined", ptr %41, i32 0, i32 0
  %43 = load i8, ptr %42, align 8, !tbaa !9
  %44 = zext i8 %43 to i64
  br label %45

45:                                               ; preds = %40, %36
  %46 = phi i64 [ %39, %36 ], [ %44, %40 ]
  call void @llvm.memcpy.p0.p0.i64(ptr align 1 %19, ptr align 1 %32, i64 %46, i1 false)
  %47 = load ptr, ptr %2, align 8, !tbaa !10
  %48 = getelementptr inbounds nuw %struct.grpc_slice, ptr %0, i32 0, i32 0
  %49 = load ptr, ptr %48, align 8, !tbaa !3
  %50 = icmp ne ptr %49, null
  br i1 %50, label %51, label %55

51:                                               ; preds = %45
  %52 = getelementptr inbounds nuw %struct.grpc_slice, ptr %0, i32 0, i32 1
  %53 = getelementptr inbounds nuw %"struct.grpc_slice::grpc_slice_data::grpc_slice_refcounted", ptr %52, i32 0, i32 0
  %54 = load i64, ptr %53, align 8, !tbaa !9
  br label %60

55:                                               ; preds = %45
  %56 = getelementptr inbounds nuw %struct.grpc_slice, ptr %0, i32 0, i32 1
  %57 = getelementptr inbounds nuw %"struct.grpc_slice::grpc_slice_data::grpc_slice_inlined", ptr %56, i32 0, i32 0
  %58 = load i8, ptr %57, align 8, !tbaa !9
  %59 = zext i8 %58 to i64
  br label %60

60:                                               ; preds = %55, %51
  %61 = phi i64 [ %54, %51 ], [ %59, %55 ]
  %62 = getelementptr inbounds nuw i8, ptr %47, i64 %61
  store i8 0, ptr %62, align 1, !tbaa !9
  %63 = load ptr, ptr %2, align 8, !tbaa !10
  call void @llvm.lifetime.end.p0(i64 8, ptr %2) #3
  ret ptr %63
}