; Function Attrs: mustprogress uwtable
define ptr @grpc_slice_to_c_string(ptr noundef readonly byval(%struct.grpc_slice) align 8 captures(none) %0) local_unnamed_addr #3 {
  %2 = load ptr, ptr %0, align 8, !tbaa !3
  %.not = icmp eq ptr %2, null
  %3 = getelementptr inbounds nuw i8, ptr %0, i64 8
  %4 = load i64, ptr %3, align 8
  %5 = and i64 %4, 255
  %6 = select i1 %.not, i64 %5, i64 %4
  %7 = add i64 %6, 1
  %8 = tail call ptr @gpr_malloc(i64 noundef %7)
  %9 = getelementptr inbounds nuw i8, ptr %0, i64 16
  %10 = load ptr, ptr %9, align 8
  %11 = getelementptr inbounds nuw i8, ptr %0, i64 9
  %12 = select i1 %.not, ptr %11, ptr %10
  call void @llvm.memcpy.p0.p0.i64(ptr align 1 %8, ptr align 1 %12, i64 %6, i1 false)
  %13 = getelementptr inbounds nuw i8, ptr %8, i64 %6
  store i8 0, ptr %13, align 1, !tbaa !9
  ret ptr %8
}